; Function Attrs: nofree nounwind uwtable
define void @Min_CoverWrite(ptr noundef captures(none) %0, ptr noundef readonly %1) local_unnamed_addr #2 {
  %.not5 = icmp eq ptr %1, null
  br i1 %.not5, label %._crit_edge, label %.lr.ph

.lr.ph:                                           ; preds = %2, %Min_CubeWrite.exit
  %.06 = phi ptr [ %23, %Min_CubeWrite.exit ], [ %1, %2 ]
  %3 = getelementptr inbounds nuw i8, ptr %.06, i64 8
  %4 = load i32, ptr %3, align 8
  %5 = and i32 %4, 1023
  %.not19.i = icmp eq i32 %5, 0
  br i1 %.not19.i, label %Min_CubeWrite.exit, label %.lr.ph.i

.lr.ph.i:                                         ; preds = %.lr.ph
  %6 = getelementptr inbounds nuw i8, ptr %.06, i64 12
  br label %7

7:                                                ; preds = %7, %.lr.ph.i
  %.018.i = phi i32 [ 0, %.lr.ph.i ], [ %18, %7 ]
  %8 = shl nuw nsw i32 %.018.i, 1
  %9 = lshr i32 %.018.i, 4
  %10 = zext nneg i32 %9 to i64
  %11 = getelementptr inbounds nuw [1 x i32], ptr %6, i64 0, i64 %10
  %12 = load i32, ptr %11, align 4, !tbaa !3
  %13 = and i32 %8, 30
  %14 = shl nuw nsw i32 1, %13
  %15 = and i32 %14, %12
  %.not.i = icmp eq i32 %15, 0
  %16 = shl nuw i32 2, %13
  %17 = and i32 %16, %12
  %.not13.i = icmp eq i32 %17, 0
  %..i = select i1 %.not13.i, i32 48, i32 45
  %.20.i = select i1 %.not13.i, i32 63, i32 49
  %.sink.i = select i1 %.not.i, i32 %.20.i, i32 %..i
  %fputc16.i = tail call i32 @fputc(i32 %.sink.i, ptr %0)
  %18 = add nuw nsw i32 %.018.i, 1
  %19 = load i32, ptr %3, align 8
  %20 = and i32 %19, 1023
  %21 = icmp samesign ult i32 %18, %20
  br i1 %21, label %7, label %Min_CubeWrite.exit, !llvm.loop !20

Min_CubeWrite.exit:                               ; preds = %7, %.lr.ph
  %22 = tail call i64 @fwrite(ptr nonnull @.str.4, i64 3, i64 1, ptr %0)
  %23 = load ptr, ptr %.06, align 8, !tbaa !16
  %.not = icmp eq ptr %23, null
  br i1 %.not, label %._crit_edge, label %.lr.ph, !llvm.loop !21

._crit_edge:                                      ; preds = %Min_CubeWrite.exit, %2
  %putchar = tail call i32 @putchar(i32 10)
  ret void
}